; Function Attrs: nounwind uwtable
define ptr @l_Lean_Elab_PartialFixpoint_unfoldPredRel___lambda__2(ptr noundef %0, ptr noundef %1, ptr readnone captures(none) %2, ptr noundef %3, ptr noundef %4, ptr noundef %5, ptr noundef %6, ptr noundef %7) local_unnamed_addr #0 {
  %9 = getelementptr inbounds nuw i8, ptr %1, i64 8
  %10 = load ptr, ptr %9, align 8, !tbaa !9
  %11 = ptrtoint ptr %10 to i64
  %12 = and i64 %11, 1
  %.not = icmp eq i64 %12, 0
  br i1 %.not, label %13, label %lean_inc.exit27

13:                                               ; preds = %8
  %.val.i = load i32, ptr %10, align 4, !tbaa !4
  %14 = icmp sgt i32 %.val.i, 0
  br i1 %14, label %15, label %17, !prof !14

15:                                               ; preds = %13
  %16 = add nuw i32 %.val.i, 1
  store i32 %16, ptr %10, align 4, !tbaa !4
  br label %lean_inc.exit27

17:                                               ; preds = %13
  %.not.i31 = icmp eq i32 %.val.i, 0
  br i1 %.not.i31, label %lean_inc.exit27, label %18

18:                                               ; preds = %17
  tail call void @lean_inc_ref_cold(ptr noundef nonnull %10) #6
  br label %lean_inc.exit27

lean_inc.exit27:                                  ; preds = %18, %17, %15, %8
  %19 = getelementptr inbounds nuw i8, ptr %1, i64 16
  %20 = load ptr, ptr %19, align 8, !tbaa !9
  %21 = ptrtoint ptr %20 to i64
  %22 = and i64 %21, 1
  %.not41 = icmp eq i64 %22, 0
  br i1 %.not41, label %23, label %lean_inc.exit26

23:                                               ; preds = %lean_inc.exit27
  %.val.i32 = load i32, ptr %20, align 4, !tbaa !4
  %24 = icmp sgt i32 %.val.i32, 0
  br i1 %24, label %25, label %27, !prof !14

25:                                               ; preds = %23
  %26 = add nuw i32 %.val.i32, 1
  store i32 %26, ptr %20, align 4, !tbaa !4
  br label %lean_inc.exit26

27:                                               ; preds = %23
  %.not.i33 = icmp eq i32 %.val.i32, 0
  br i1 %.not.i33, label %lean_inc.exit26, label %28

28:                                               ; preds = %27
  tail call void @lean_inc_ref_cold(ptr noundef nonnull %20) #6
  br label %lean_inc.exit26

lean_inc.exit26:                                  ; preds = %28, %27, %25, %lean_inc.exit27
  %29 = ptrtoint ptr %1 to i64
  %30 = and i64 %29, 1
  %.not42 = icmp eq i64 %30, 0
  br i1 %.not42, label %31, label %lean_dec.exit28

31:                                               ; preds = %lean_inc.exit26
  %32 = load i32, ptr %1, align 4, !tbaa !4
  %33 = icmp sgt i32 %32, 1
  br i1 %33, label %34, label %36, !prof !14

34:                                               ; preds = %31
  %35 = add nsw i32 %32, -1
  store i32 %35, ptr %1, align 4, !tbaa !4
  br label %lean_dec.exit28

36:                                               ; preds = %31
  %.not.i = icmp eq i32 %32, 0
  br i1 %.not.i, label %lean_dec.exit28, label %37

37:                                               ; preds = %36
  tail call void @lean_dec_ref_cold(ptr noundef nonnull %1) #6
  br label %lean_dec.exit28

lean_dec.exit28:                                  ; preds = %37, %36, %34, %lean_inc.exit26
  %38 = tail call ptr @l_Lean_mkArrow(ptr noundef %10, ptr noundef %20, ptr noundef %5, ptr noundef %6, ptr noundef %7) #6
  %39 = getelementptr inbounds nuw i8, ptr %38, i64 8
  %40 = load ptr, ptr %39, align 8, !tbaa !9
  %41 = ptrtoint ptr %40 to i64
  %42 = and i64 %41, 1
  %.not43 = icmp eq i64 %42, 0
  br i1 %.not43, label %43, label %lean_inc.exit25

43:                                               ; preds = %lean_dec.exit28
  %.val.i35 = load i32, ptr %40, align 4, !tbaa !4
  %44 = icmp sgt i32 %.val.i35, 0
  br i1 %44, label %45, label %47, !prof !14

45:                                               ; preds = %43
  %46 = add nuw i32 %.val.i35, 1
  store i32 %46, ptr %40, align 4, !tbaa !4
  br label %lean_inc.exit25

47:                                               ; preds = %43
  %.not.i36 = icmp eq i32 %.val.i35, 0
  br i1 %.not.i36, label %lean_inc.exit25, label %48

48:                                               ; preds = %47
  tail call void @lean_inc_ref_cold(ptr noundef nonnull %40) #6
  br label %lean_inc.exit25

lean_inc.exit25:                                  ; preds = %48, %47, %45, %lean_dec.exit28
  %49 = getelementptr inbounds nuw i8, ptr %38, i64 16
  %50 = load ptr, ptr %49, align 8, !tbaa !9
  %51 = ptrtoint ptr %50 to i64
  %52 = and i64 %51, 1
  %.not44 = icmp eq i64 %52, 0
  br i1 %.not44, label %53, label %lean_inc.exit

53:                                               ; preds = %lean_inc.exit25
  %.val.i38 = load i32, ptr %50, align 4, !tbaa !4
  %54 = icmp sgt i32 %.val.i38, 0
  br i1 %54, label %55, label %57, !prof !14

55:                                               ; preds = %53
  %56 = add nuw i32 %.val.i38, 1
  store i32 %56, ptr %50, align 4, !tbaa !4
  br label %lean_inc.exit

57:                                               ; preds = %53
  %.not.i39 = icmp eq i32 %.val.i38, 0
  br i1 %.not.i39, label %lean_inc.exit, label %58

58:                                               ; preds = %57
  tail call void @lean_inc_ref_cold(ptr noundef nonnull %50) #6
  br label %lean_inc.exit

lean_inc.exit:                                    ; preds = %58, %57, %55, %lean_inc.exit25
  %59 = ptrtoint ptr %38 to i64
  %60 = and i64 %59, 1
  %.not45 = icmp eq i64 %60, 0
  br i1 %.not45, label %61, label %lean_dec.exit

61:                                               ; preds = %lean_inc.exit
  %62 = load i32, ptr %38, align 4, !tbaa !4
  %63 = icmp sgt i32 %62, 1
  br i1 %63, label %64, label %66, !prof !14

64:                                               ; preds = %61
  %65 = add nsw i32 %62, -1
  store i32 %65, ptr %38, align 4, !tbaa !4
  br label %lean_dec.exit

66:                                               ; preds = %61
  %.not.i29 = icmp eq i32 %62, 0
  br i1 %.not.i29, label %lean_dec.exit, label %67

67:                                               ; preds = %66
  tail call void @lean_dec_ref_cold(ptr noundef nonnull %38) #6
  br label %lean_dec.exit

lean_dec.exit:                                    ; preds = %67, %66, %64, %lean_inc.exit
  %68 = tail call ptr @l_Lean_Meta_mkForallFVars(ptr noundef %0, ptr noundef %40, i8 noundef zeroext 0, i8 noundef zeroext 1, i8 noundef zeroext 1, ptr noundef %3, ptr noundef %4, ptr noundef %5, ptr noundef %6, ptr noundef %50) #6
  ret ptr %68
}